; Function Attrs: mustprogress nounwind uwtable
define noundef zeroext i1 @_ZN7glslang13TIntermediate16areAllChildConstEPNS_16TIntermAggregateE(ptr noundef nonnull readnone align 8 captures(none) dereferenceable(2024) %0, ptr noundef %1) local_unnamed_addr #0 align 2 {
  %.not = icmp eq ptr %1, null
  br i1 %.not, label %.loopexit, label %3

3:                                                ; preds = %2
  %4 = load ptr, ptr %1, align 8
  %5 = getelementptr inbounds nuw i8, ptr %4, i64 400
  %6 = load ptr, ptr %5, align 8
  %7 = tail call noundef nonnull align 8 dereferenceable(32) ptr %6(ptr noundef nonnull align 8 dereferenceable(364) %1) #10
  %8 = getelementptr inbounds nuw i8, ptr %7, i64 8
  %9 = load ptr, ptr %8, align 8
  %10 = getelementptr inbounds nuw i8, ptr %7, i64 16
  %11 = load ptr, ptr %10, align 8
  %.not1011 = icmp eq ptr %9, %11
  br i1 %.not1011, label %.loopexit, label %.lr.ph

12:                                               ; preds = %.lr.ph
  %13 = getelementptr inbounds nuw i8, ptr %.sroa.07.012, i64 8
  %14 = load ptr, ptr %10, align 8
  %.not10 = icmp eq ptr %13, %14
  br i1 %.not10, label %.loopexit, label %.lr.ph, !llvm.loop !35

.lr.ph:                                           ; preds = %3, %12
  %.sroa.07.012 = phi ptr [ %13, %12 ], [ %9, %3 ]
  %15 = load ptr, ptr %.sroa.07.012, align 8
  %16 = load ptr, ptr %15, align 8
  %17 = getelementptr inbounds nuw i8, ptr %16, i64 24
  %18 = load ptr, ptr %17, align 8
  %19 = tail call noundef ptr %18(ptr noundef nonnull align 8 dereferenceable(32) %15) #10
  %20 = load ptr, ptr %19, align 8
  %21 = getelementptr inbounds nuw i8, ptr %20, i64 40
  %22 = load ptr, ptr %21, align 8
  %23 = tail call noundef ptr %22(ptr noundef nonnull align 8 dereferenceable(32) %19) #10
  %.not6.not.not = icmp ne ptr %23, null
  br i1 %.not6.not.not, label %12, label %.loopexit

.loopexit:                                        ; preds = %.lr.ph, %12, %3, %2
  %.0 = phi i1 [ true, %2 ], [ true, %3 ], [ %.not6.not.not, %12 ], [ %.not6.not.not, %.lr.ph ]
  ret i1 %.0
}